target datalayout = "e-m:e-p270:32:32-p271:32:32-p272:64:64-i64:64-i128:128-f80:128-n8:16:32:64-S128"
target triple = "x86_64-pc-linux-gnu"

%struct.Vec_Str_t_ = type { i32, i32, ptr }

@.str.27 = private unnamed_addr constant [3 x i8] c"%s\00", align 1

; Function Attrs: inlinehint mustprogress nounwind uwtable
define internal void @_ZL11Vec_StrFreeP10Vec_Str_t_(ptr noundef %0) #4 {
  %2 = alloca ptr, align 8
  store ptr %0, ptr %2, align 8, !tbaa !178
  %3 = load ptr, ptr %2, align 8, !tbaa !178
  %4 = getelementptr inbounds nuw %struct.Vec_Str_t_, ptr %3, i32 0, i32 2
  %5 = load ptr, ptr %4, align 8, !tbaa !186
  %6 = icmp ne ptr %5, null
  br i1 %6, label %7, label %13

7:                                                ; preds = %1
  %8 = load ptr, ptr %2, align 8, !tbaa !178
  %9 = getelementptr inbounds nuw %struct.Vec_Str_t_, ptr %8, i32 0, i32 2
  %10 = load ptr, ptr %9, align 8, !tbaa !186
  call void @free(ptr noundef %10) #15
  %11 = load ptr, ptr %2, align 8, !tbaa !178
  %12 = getelementptr inbounds nuw %struct.Vec_Str_t_, ptr %11, i32 0, i32 2
  store ptr null, ptr %12, align 8, !tbaa !186
  br label %14

13:                                               ; preds = %1
  br label %14

14:                                               ; preds = %13, %7
  %15 = load ptr, ptr %2, align 8, !tbaa !178
  %16 = icmp ne ptr %15, null
  br i1 %16, label %17, label %19

17:                                               ; preds = %14
  %18 = load ptr, ptr %2, align 8, !tbaa !178
  call void @free(ptr noundef %18) #15
  store ptr null, ptr %2, align 8, !tbaa !178
  br label %20

19:                                               ; preds = %14
  br label %20

20:                                               ; preds = %19, %17
  ret void
}

; Function Attrs: inlinehint mustprogress nounwind uwtable
define internal noundef ptr @_ZL12Vec_StrArrayP10Vec_Str_t_(ptr noundef %0) #4 {
  %2 = alloca ptr, align 8
  store ptr %0, ptr %2, align 8, !tbaa !178
  %3 = load ptr, ptr %2, align 8, !tbaa !178
  %4 = getelementptr inbounds nuw %struct.Vec_Str_t_, ptr %3, i32 0, i32 2
  %5 = load ptr, ptr %4, align 8, !tbaa !186
  ret ptr %5
}

; Function Attrs: mustprogress nounwind uwtable
define void @_Z26bmcg2_sat_solver_print_sopP10Gia_Man_t_(ptr noundef %0) #0 {
  %2 = alloca ptr, align 8
  %3 = alloca ptr, align 8
  store ptr %0, ptr %2, align 8, !tbaa !144
  call void @llvm.lifetime.start.p0(i64 8, ptr %3) #15
  %4 = load ptr, ptr %2, align 8, !tbaa !144
  %5 = call ptr @bmcg2_sat_solver_sop(ptr noundef %4, i32 noundef 0)
  store ptr %5, ptr %3, align 8, !tbaa !178
  %6 = load ptr, ptr %3, align 8, !tbaa !178
  %7 = call noundef ptr @_ZL12Vec_StrArrayP10Vec_Str_t_(ptr noundef %6)
  %8 = call i32 (ptr, ...) @printf(ptr noundef @.str.27, ptr noundef %7)
  %9 = load ptr, ptr %3, align 8, !tbaa !178
  call void @_ZL11Vec_StrFreeP10Vec_Str_t_(ptr noundef %9)
  call void @llvm.lifetime.end.p0(i64 8, ptr %3) #15
  ret void
}