; Function Attrs: mustprogress nounwind uwtable
define void @_Z26bmcg2_sat_solver_print_sopP10Gia_Man_t_(ptr noundef %0) local_unnamed_addr #0 {
  %2 = tail call ptr @bmcg2_sat_solver_sop(ptr noundef %0, i32 noundef 0)
  %3 = getelementptr i8, ptr %2, i64 8
  %.val = load ptr, ptr %3, align 8, !tbaa !161
  %4 = tail call i32 (ptr, ...) @printf(ptr noundef nonnull dereferenceable(1) @.str.27, ptr noundef %.val)
  %5 = load ptr, ptr %3, align 8, !tbaa !161
  %.not.i = icmp eq ptr %5, null
  br i1 %.not.i, label %_ZL11Vec_StrFreeP10Vec_Str_t_.exit, label %6

6:                                                ; preds = %1
  tail call void @free(ptr noundef nonnull %5) #30
  br label %_ZL11Vec_StrFreeP10Vec_Str_t_.exit

_ZL11Vec_StrFreeP10Vec_Str_t_.exit:               ; preds = %1, %6
  tail call void @free(ptr noundef nonnull %2) #30
  ret void
}